target datalayout = "e-m:e-p270:32:32-p271:32:32-p272:64:64-i64:64-i128:128-f80:128-n8:16:32:64-S128"
target triple = "x86_64-pc-linux-gnu"

%struct.RsaKey = type { %struct.sp_int, %struct.sp_int, %struct.sp_int, %struct.sp_int, %struct.sp_int, %struct.sp_int, %struct.sp_int, %struct.sp_int, ptr, ptr, i32, i32, i32, ptr, i8 }
%struct.sp_int = type { i16, i16, [129 x i64] }

; Function Attrs: nounwind uwtable
define internal i32 @RsaGetValue(ptr noundef %0, ptr noundef %1, ptr noundef %2) #0 {
  %4 = alloca ptr, align 8
  %5 = alloca ptr, align 8
  %6 = alloca ptr, align 8
  %7 = alloca i32, align 4
  %8 = alloca i32, align 4
  store ptr %0, ptr %4, align 8, !tbaa !40
  store ptr %1, ptr %5, align 8, !tbaa !27
  store ptr %2, ptr %6, align 8, !tbaa !9
  call void @llvm.lifetime.start.p0(i64 4, ptr %7) #8
  call void @llvm.lifetime.start.p0(i64 4, ptr %8) #8
  store i32 0, ptr %8, align 4, !tbaa !7
  %9 = load ptr, ptr %4, align 8, !tbaa !40
  %10 = call i32 @sp_unsigned_bin_size(ptr noundef %9)
  store i32 %10, ptr %7, align 4, !tbaa !7
  %11 = load i32, ptr %7, align 4, !tbaa !7
  %12 = load ptr, ptr %6, align 8, !tbaa !9
  %13 = load i32, ptr %12, align 4, !tbaa !7
  %14 = icmp ugt i32 %11, %13
  br i1 %14, label %15, label %16

15:                                               ; preds = %3
  store i32 -131, ptr %8, align 4, !tbaa !7
  br label %16

16:                                               ; preds = %15, %3
  %17 = load i32, ptr %8, align 4, !tbaa !7
  %18 = icmp eq i32 %17, 0
  br i1 %18, label %19, label %23

19:                                               ; preds = %16
  %20 = load ptr, ptr %4, align 8, !tbaa !40
  %21 = load ptr, ptr %5, align 8, !tbaa !27
  %22 = call i32 @sp_to_unsigned_bin(ptr noundef %20, ptr noundef %21)
  store i32 %22, ptr %8, align 4, !tbaa !7
  br label %23

23:                                               ; preds = %19, %16
  %24 = load i32, ptr %8, align 4, !tbaa !7
  %25 = icmp eq i32 %24, 0
  br i1 %25, label %26, label %29

26:                                               ; preds = %23
  %27 = load i32, ptr %7, align 4, !tbaa !7
  %28 = load ptr, ptr %6, align 8, !tbaa !9
  store i32 %27, ptr %28, align 4, !tbaa !7
  br label %29

29:                                               ; preds = %26, %23
  %30 = load i32, ptr %8, align 4, !tbaa !7
  call void @llvm.lifetime.end.p0(i64 4, ptr %8) #8
  call void @llvm.lifetime.end.p0(i64 4, ptr %7) #8
  ret i32 %30
}

; Function Attrs: nounwind uwtable
define i32 @wc_RsaExportKey(ptr noundef %0, ptr noundef %1, ptr noundef %2, ptr noundef %3, ptr noundef %4, ptr noundef %5, ptr noundef %6, ptr noundef %7, ptr noundef %8, ptr noundef %9, ptr noundef %10) #0 {
  %12 = alloca ptr, align 8
  %13 = alloca ptr, align 8
  %14 = alloca ptr, align 8
  %15 = alloca ptr, align 8
  %16 = alloca ptr, align 8
  %17 = alloca ptr, align 8
  %18 = alloca ptr, align 8
  %19 = alloca ptr, align 8
  %20 = alloca ptr, align 8
  %21 = alloca ptr, align 8
  %22 = alloca ptr, align 8
  %23 = alloca i32, align 4
  store ptr %0, ptr %12, align 8, !tbaa !11
  store ptr %1, ptr %13, align 8, !tbaa !27
  store ptr %2, ptr %14, align 8, !tbaa !9
  store ptr %3, ptr %15, align 8, !tbaa !27
  store ptr %4, ptr %16, align 8, !tbaa !9
  store ptr %5, ptr %17, align 8, !tbaa !27
  store ptr %6, ptr %18, align 8, !tbaa !9
  store ptr %7, ptr %19, align 8, !tbaa !27
  store ptr %8, ptr %20, align 8, !tbaa !9
  store ptr %9, ptr %21, align 8, !tbaa !27
  store ptr %10, ptr %22, align 8, !tbaa !9
  call void @llvm.lifetime.start.p0(i64 4, ptr %23) #8
  store i32 -173, ptr %23, align 4, !tbaa !7
  %24 = load ptr, ptr %12, align 8, !tbaa !11
  %25 = icmp ne ptr %24, null
  br i1 %25, label %26, label %57

26:                                               ; preds = %11
  %27 = load ptr, ptr %13, align 8, !tbaa !27
  %28 = icmp ne ptr %27, null
  br i1 %28, label %29, label %57

29:                                               ; preds = %26
  %30 = load ptr, ptr %14, align 8, !tbaa !9
  %31 = icmp ne ptr %30, null
  br i1 %31, label %32, label %57

32:                                               ; preds = %29
  %33 = load ptr, ptr %15, align 8, !tbaa !27
  %34 = icmp ne ptr %33, null
  br i1 %34, label %35, label %57

35:                                               ; preds = %32
  %36 = load ptr, ptr %16, align 8, !tbaa !9
  %37 = icmp ne ptr %36, null
  br i1 %37, label %38, label %57

38:                                               ; preds = %35
  %39 = load ptr, ptr %17, align 8, !tbaa !27
  %40 = icmp ne ptr %39, null
  br i1 %40, label %41, label %57

41:                                               ; preds = %38
  %42 = load ptr, ptr %18, align 8, !tbaa !9
  %43 = icmp ne ptr %42, null
  br i1 %43, label %44, label %57

44:                                               ; preds = %41
  %45 = load ptr, ptr %19, align 8, !tbaa !27
  %46 = icmp ne ptr %45, null
  br i1 %46, label %47, label %57

47:                                               ; preds = %44
  %48 = load ptr, ptr %20, align 8, !tbaa !9
  %49 = icmp ne ptr %48, null
  br i1 %49, label %50, label %57

50:                                               ; preds = %47
  %51 = load ptr, ptr %21, align 8, !tbaa !27
  %52 = icmp ne ptr %51, null
  br i1 %52, label %53, label %57

53:                                               ; preds = %50
  %54 = load ptr, ptr %22, align 8, !tbaa !9
  %55 = icmp ne ptr %54, null
  br i1 %55, label %56, label %57

56:                                               ; preds = %53
  store i32 0, ptr %23, align 4, !tbaa !7
  br label %57

57:                                               ; preds = %56, %53, %50, %47, %44, %41, %38, %35, %32, %29, %26, %11
  %58 = load i32, ptr %23, align 4, !tbaa !7
  %59 = icmp eq i32 %58, 0
  br i1 %59, label %60, label %66

60:                                               ; preds = %57
  %61 = load ptr, ptr %12, align 8, !tbaa !11
  %62 = getelementptr inbounds nuw %struct.RsaKey, ptr %61, i32 0, i32 1
  %63 = load ptr, ptr %13, align 8, !tbaa !27
  %64 = load ptr, ptr %14, align 8, !tbaa !9
  %65 = call i32 @RsaGetValue(ptr noundef %62, ptr noundef %63, ptr noundef %64)
  store i32 %65, ptr %23, align 4, !tbaa !7
  br label %66

66:                                               ; preds = %60, %57
  %67 = load i32, ptr %23, align 4, !tbaa !7
  %68 = icmp eq i32 %67, 0
  br i1 %68, label %69, label %75

69:                                               ; preds = %66
  %70 = load ptr, ptr %12, align 8, !tbaa !11
  %71 = getelementptr inbounds nuw %struct.RsaKey, ptr %70, i32 0, i32 0
  %72 = load ptr, ptr %15, align 8, !tbaa !27
  %73 = load ptr, ptr %16, align 8, !tbaa !9
  %74 = call i32 @RsaGetValue(ptr noundef %71, ptr noundef %72, ptr noundef %73)
  store i32 %74, ptr %23, align 4, !tbaa !7
  br label %75

75:                                               ; preds = %69, %66
  %76 = load i32, ptr %23, align 4, !tbaa !7
  %77 = icmp eq i32 %76, 0
  br i1 %77, label %78, label %84

78:                                               ; preds = %75
  %79 = load ptr, ptr %12, align 8, !tbaa !11
  %80 = getelementptr inbounds nuw %struct.RsaKey, ptr %79, i32 0, i32 2
  %81 = load ptr, ptr %17, align 8, !tbaa !27
  %82 = load ptr, ptr %18, align 8, !tbaa !9
  %83 = call i32 @RsaGetValue(ptr noundef %80, ptr noundef %81, ptr noundef %82)
  store i32 %83, ptr %23, align 4, !tbaa !7
  br label %84

84:                                               ; preds = %78, %75
  %85 = load i32, ptr %23, align 4, !tbaa !7
  %86 = icmp eq i32 %85, 0
  br i1 %86, label %87, label %93

87:                                               ; preds = %84
  %88 = load ptr, ptr %12, align 8, !tbaa !11
  %89 = getelementptr inbounds nuw %struct.RsaKey, ptr %88, i32 0, i32 3
  %90 = load ptr, ptr %19, align 8, !tbaa !27
  %91 = load ptr, ptr %20, align 8, !tbaa !9
  %92 = call i32 @RsaGetValue(ptr noundef %89, ptr noundef %90, ptr noundef %91)
  store i32 %92, ptr %23, align 4, !tbaa !7
  br label %93

93:                                               ; preds = %87, %84
  %94 = load i32, ptr %23, align 4, !tbaa !7
  %95 = icmp eq i32 %94, 0
  br i1 %95, label %96, label %102

96:                                               ; preds = %93
  %97 = load ptr, ptr %12, align 8, !tbaa !11
  %98 = getelementptr inbounds nuw %struct.RsaKey, ptr %97, i32 0, i32 4
  %99 = load ptr, ptr %21, align 8, !tbaa !27
  %100 = load ptr, ptr %22, align 8, !tbaa !9
  %101 = call i32 @RsaGetValue(ptr noundef %98, ptr noundef %99, ptr noundef %100)
  store i32 %101, ptr %23, align 4, !tbaa !7
  br label %102

102:                                              ; preds = %96, %93
  %103 = load i32, ptr %23, align 4, !tbaa !7
  call void @llvm.lifetime.end.p0(i64 4, ptr %23) #8
  ret i32 %103
}