; Function Attrs: nounwind uwtable
define i32 @wc_RsaExportKey(ptr noundef %0, ptr noundef %1, ptr noundef captures(address_is_null) %2, ptr noundef %3, ptr noundef captures(address_is_null) %4, ptr noundef %5, ptr noundef captures(address_is_null) %6, ptr noundef %7, ptr noundef captures(address_is_null) %8, ptr noundef %9, ptr noundef captures(address_is_null) %10) local_unnamed_addr #0 {
  %12 = icmp ne ptr %0, null
  %13 = icmp ne ptr %1, null
  %or.cond = and i1 %12, %13
  %14 = icmp ne ptr %2, null
  %or.cond3 = and i1 %or.cond, %14
  %15 = icmp ne ptr %3, null
  %or.cond5 = and i1 %or.cond3, %15
  %16 = icmp ne ptr %4, null
  %or.cond7 = and i1 %or.cond5, %16
  %17 = icmp ne ptr %5, null
  %or.cond9 = and i1 %or.cond7, %17
  %18 = icmp ne ptr %6, null
  %or.cond11 = and i1 %or.cond9, %18
  %19 = icmp ne ptr %7, null
  %or.cond13 = and i1 %or.cond11, %19
  %20 = icmp ne ptr %8, null
  %or.cond15 = and i1 %or.cond13, %20
  %21 = icmp ne ptr %9, null
  %or.cond17 = and i1 %or.cond15, %21
  %22 = icmp ne ptr %10, null
  %or.cond19 = and i1 %or.cond17, %22
  br i1 %or.cond19, label %23, label %RsaGetValue.exit52

23:                                               ; preds = %11
  %24 = getelementptr inbounds nuw i8, ptr %0, i64 1040
  %25 = tail call i32 @sp_unsigned_bin_size(ptr noundef nonnull %24) #12
  %26 = load i32, ptr %2, align 4, !tbaa !15
  %.not.i = icmp ugt i32 %25, %26
  br i1 %.not.i, label %RsaGetValue.exit52, label %27

27:                                               ; preds = %23
  %28 = tail call i32 @sp_to_unsigned_bin(ptr noundef nonnull %24, ptr noundef nonnull %1) #12
  %29 = icmp eq i32 %28, 0
  br i1 %29, label %RsaGetValue.exit.thread63, label %RsaGetValue.exit52

RsaGetValue.exit.thread63:                        ; preds = %27
  store i32 %25, ptr %2, align 4, !tbaa !15
  %30 = tail call i32 @sp_unsigned_bin_size(ptr noundef nonnull %0) #12
  %31 = load i32, ptr %4, align 4, !tbaa !15
  %.not.i50 = icmp ugt i32 %30, %31
  br i1 %.not.i50, label %RsaGetValue.exit52, label %32

32:                                               ; preds = %RsaGetValue.exit.thread63
  %33 = tail call i32 @sp_to_unsigned_bin(ptr noundef nonnull %0, ptr noundef nonnull %3) #12
  %34 = icmp eq i32 %33, 0
  br i1 %34, label %35, label %RsaGetValue.exit52

35:                                               ; preds = %32
  store i32 %30, ptr %4, align 4, !tbaa !15
  %36 = getelementptr inbounds nuw i8, ptr %0, i64 2080
  %37 = tail call i32 @sp_unsigned_bin_size(ptr noundef nonnull %36) #12
  %38 = load i32, ptr %6, align 4, !tbaa !15
  %.not.i53 = icmp ugt i32 %37, %38
  br i1 %.not.i53, label %RsaGetValue.exit52, label %39

39:                                               ; preds = %35
  %40 = tail call i32 @sp_to_unsigned_bin(ptr noundef nonnull %36, ptr noundef nonnull %5) #12
  %41 = icmp eq i32 %40, 0
  br i1 %41, label %42, label %RsaGetValue.exit52

42:                                               ; preds = %39
  store i32 %37, ptr %6, align 4, !tbaa !15
  %43 = getelementptr inbounds nuw i8, ptr %0, i64 3120
  %44 = tail call i32 @sp_unsigned_bin_size(ptr noundef nonnull %43) #12
  %45 = load i32, ptr %8, align 4, !tbaa !15
  %.not.i56 = icmp ugt i32 %44, %45
  br i1 %.not.i56, label %RsaGetValue.exit52, label %46

46:                                               ; preds = %42
  %47 = tail call i32 @sp_to_unsigned_bin(ptr noundef nonnull %43, ptr noundef nonnull %7) #12
  %48 = icmp eq i32 %47, 0
  br i1 %48, label %49, label %RsaGetValue.exit52

49:                                               ; preds = %46
  store i32 %44, ptr %8, align 4, !tbaa !15
  %50 = getelementptr inbounds nuw i8, ptr %0, i64 4160
  %51 = tail call i32 @sp_unsigned_bin_size(ptr noundef nonnull %50) #12
  %52 = load i32, ptr %10, align 4, !tbaa !15
  %.not.i59 = icmp ugt i32 %51, %52
  br i1 %.not.i59, label %RsaGetValue.exit52, label %53

53:                                               ; preds = %49
  %54 = tail call i32 @sp_to_unsigned_bin(ptr noundef nonnull %50, ptr noundef nonnull %9) #12
  %55 = icmp eq i32 %54, 0
  br i1 %55, label %56, label %RsaGetValue.exit52

56:                                               ; preds = %53
  store i32 %51, ptr %10, align 4, !tbaa !15
  br label %RsaGetValue.exit52

RsaGetValue.exit52:                               ; preds = %11, %23, %27, %RsaGetValue.exit.thread63, %32, %35, %39, %42, %46, %56, %53, %49
  %.5 = phi i32 [ 0, %56 ], [ %54, %53 ], [ -131, %49 ], [ -131, %42 ], [ %47, %46 ], [ -131, %35 ], [ %40, %39 ], [ -131, %RsaGetValue.exit.thread63 ], [ %33, %32 ], [ -131, %23 ], [ %28, %27 ], [ -173, %11 ]
  ret i32 %.5
}